; Function Attrs: mustprogress nofree norecurse nounwind willreturn memory(argmem: readwrite) uwtable
define hidden void @hb_buffer_set_invisible_glyph(ptr nocapture noundef %0, i32 noundef %1) local_unnamed_addr #12 {
  %3 = getelementptr inbounds i8, ptr %0, i64 4
  %4 = load atomic i32, ptr %3 monotonic, align 4
  %.not.i = icmp eq i32 %4, 0
  br i1 %.not.i, label %7, label %5

5:                                                ; preds = %2
  %6 = getelementptr inbounds i8, ptr %0, i64 36
  store i32 %1, ptr %6, align 4
  br label %7

7:                                                ; preds = %2, %5
  ret void
}